; ModuleID = '51/832.c'
source_filename = "51/832.c"
target datalayout = "e-m:e-p270:32:32-p271:32:32-p272:64:64-i64:64-f80:128-n8:16:32:64-S128"
target triple = "x86_64-pc-linux-gnu"

@.str = private unnamed_addr constant [3 x i8] c"%d\00", align 1
@.str.1 = private unnamed_addr constant [3 x i8] c"%s\00", align 1
@.str.2 = private unnamed_addr constant [4 x i8] c"%d\0A\00", align 1
@.str.3 = private unnamed_addr constant [4 x i8] c"%s\0A\00", align 1
@.str.4 = private unnamed_addr constant [3 x i8] c"NO\00", align 1

; Function Attrs: noinline nounwind uwtable
define dso_local i32 @main() #0 {
  %1 = alloca i32, align 4
  %2 = alloca [503 x i8], align 16
  %3 = alloca [501 x [6 x i8]], align 16
  %4 = alloca [503 x i32], align 16
  %5 = alloca i32, align 4
  %6 = alloca i32, align 4
  %7 = alloca i32, align 4
  %8 = alloca i32, align 4
  %9 = alloca i32, align 4
  %10 = alloca i32, align 4
  %11 = alloca i32, align 4
  store i32 0, i32* %1, align 4
  %12 = bitcast [501 x [6 x i8]]* %3 to i8*
  call void @llvm.memset.p0i8.i64(i8* align 16 %12, i8 0, i64 3006, i1 false)
  %13 = call i32 (i8*, ...) @__isoc99_scanf(i8* getelementptr inbounds ([3 x i8], [3 x i8]* @.str, i64 0, i64 0), i32* %7)
  %14 = getelementptr inbounds [503 x i8], [503 x i8]* %2, i64 0, i64 0
  %15 = call i32 (i8*, ...) @__isoc99_scanf(i8* getelementptr inbounds ([3 x i8], [3 x i8]* @.str.1, i64 0, i64 0), i8* %14)
  %16 = getelementptr inbounds [503 x i8], [503 x i8]* %2, i64 0, i64 0
  %17 = call i64 @strlen(i8* %16) #4
  %18 = load i32, i32* %7, align 4
  %19 = sext i32 %18 to i64
  %20 = sub i64 %17, %19
  %21 = trunc i64 %20 to i32
  store i32 %21, i32* %10, align 4
  store i32 0, i32* %5, align 4
  br label %22

22:                                               ; preds = %29, %0
  %23 = load i32, i32* %5, align 4
  %24 = icmp sle i32 %23, 502
  br i1 %24, label %25, label %32

25:                                               ; preds = %22
  %26 = load i32, i32* %5, align 4
  %27 = sext i32 %26 to i64
  %28 = getelementptr inbounds [503 x i32], [503 x i32]* %4, i64 0, i64 %27
  store i32 0, i32* %28, align 4
  br label %29

29:                                               ; preds = %25
  %30 = load i32, i32* %5, align 4
  %31 = add nsw i32 %30, 1
  store i32 %31, i32* %5, align 4
  br label %22

32:                                               ; preds = %22
  store i32 0, i32* %5, align 4
  br label %33

33:                                               ; preds = %63, %32
  %34 = load i32, i32* %5, align 4
  %35 = load i32, i32* %10, align 4
  %36 = icmp sle i32 %34, %35
  br i1 %36, label %37, label %66

37:                                               ; preds = %33
  %38 = load i32, i32* %5, align 4
  store i32 %38, i32* %6, align 4
  store i32 0, i32* %8, align 4
  br label %39

39:                                               ; preds = %59, %37
  %40 = load i32, i32* %6, align 4
  %41 = load i32, i32* %5, align 4
  %42 = load i32, i32* %7, align 4
  %43 = add nsw i32 %41, %42
  %44 = sub nsw i32 %43, 1
  %45 = icmp sle i32 %40, %44
  br i1 %45, label %46, label %62

46:                                               ; preds = %39
  %47 = load i32, i32* %6, align 4
  %48 = sext i32 %47 to i64
  %49 = getelementptr inbounds [503 x i8], [503 x i8]* %2, i64 0, i64 %48
  %50 = load i8, i8* %49, align 1
  %51 = load i32, i32* %5, align 4
  %52 = sext i32 %51 to i64
  %53 = getelementptr inbounds [501 x [6 x i8]], [501 x [6 x i8]]* %3, i64 0, i64 %52
  %54 = load i32, i32* %8, align 4
  %55 = sext i32 %54 to i64
  %56 = getelementptr inbounds [6 x i8], [6 x i8]* %53, i64 0, i64 %55
  store i8 %50, i8* %56, align 1
  %57 = load i32, i32* %8, align 4
  %58 = add nsw i32 %57, 1
  store i32 %58, i32* %8, align 4
  br label %59

59:                                               ; preds = %46
  %60 = load i32, i32* %6, align 4
  %61 = add nsw i32 %60, 1
  store i32 %61, i32* %6, align 4
  br label %39

62:                                               ; preds = %39
  br label %63

63:                                               ; preds = %62
  %64 = load i32, i32* %5, align 4
  %65 = add nsw i32 %64, 1
  store i32 %65, i32* %5, align 4
  br label %33

66:                                               ; preds = %33
  store i32 0, i32* %5, align 4
  br label %67

67:                                               ; preds = %128, %66
  %68 = load i32, i32* %5, align 4
  %69 = load i32, i32* %10, align 4
  %70 = icmp sle i32 %68, %69
  br i1 %70, label %71, label %131

71:                                               ; preds = %67
  %72 = load i32, i32* %5, align 4
  %73 = sub nsw i32 %72, 1
  store i32 %73, i32* %6, align 4
  store i32 0, i32* %9, align 4
  br label %74

74:                                               ; preds = %90, %71
  %75 = load i32, i32* %6, align 4
  %76 = icmp sge i32 %75, 0
  br i1 %76, label %77, label %93

77:                                               ; preds = %74
  %78 = load i32, i32* %5, align 4
  %79 = sext i32 %78 to i64
  %80 = getelementptr inbounds [501 x [6 x i8]], [501 x [6 x i8]]* %3, i64 0, i64 %79
  %81 = getelementptr inbounds [6 x i8], [6 x i8]* %80, i64 0, i64 0
  %82 = load i32, i32* %6, align 4
  %83 = sext i32 %82 to i64
  %84 = getelementptr inbounds [501 x [6 x i8]], [501 x [6 x i8]]* %3, i64 0, i64 %83
  %85 = getelementptr inbounds [6 x i8], [6 x i8]* %84, i64 0, i64 0
  %86 = call i32 @strcmp(i8* %81, i8* %85) #4
  %87 = icmp eq i32 %86, 0
  br i1 %87, label %88, label %89

88:                                               ; preds = %77
  store i32 1, i32* %9, align 4
  br label %93

89:                                               ; preds = %77
  br label %90

90:                                               ; preds = %89
  %91 = load i32, i32* %6, align 4
  %92 = add nsw i32 %91, -1
  store i32 %92, i32* %6, align 4
  br label %74

93:                                               ; preds = %88, %74
  %94 = load i32, i32* %9, align 4
  %95 = icmp eq i32 %94, 0
  br i1 %95, label %99, label %96

96:                                               ; preds = %93
  %97 = load i32, i32* %5, align 4
  %98 = icmp eq i32 %97, 0
  br i1 %98, label %99, label %127

99:                                               ; preds = %96, %93
  %100 = load i32, i32* %5, align 4
  store i32 %100, i32* %6, align 4
  br label %101

101:                                              ; preds = %123, %99
  %102 = load i32, i32* %6, align 4
  %103 = load i32, i32* %10, align 4
  %104 = icmp sle i32 %102, %103
  br i1 %104, label %105, label %126

105:                                              ; preds = %101
  %106 = load i32, i32* %5, align 4
  %107 = sext i32 %106 to i64
  %108 = getelementptr inbounds [501 x [6 x i8]], [501 x [6 x i8]]* %3, i64 0, i64 %107
  %109 = getelementptr inbounds [6 x i8], [6 x i8]* %108, i64 0, i64 0
  %110 = load i32, i32* %6, align 4
  %111 = sext i32 %110 to i64
  %112 = getelementptr inbounds [501 x [6 x i8]], [501 x [6 x i8]]* %3, i64 0, i64 %111
  %113 = getelementptr inbounds [6 x i8], [6 x i8]* %112, i64 0, i64 0
  %114 = call i32 @strcmp(i8* %109, i8* %113) #4
  %115 = icmp eq i32 %114, 0
  br i1 %115, label %116, label %122

116:                                              ; preds = %105
  %117 = load i32, i32* %5, align 4
  %118 = sext i32 %117 to i64
  %119 = getelementptr inbounds [503 x i32], [503 x i32]* %4, i64 0, i64 %118
  %120 = load i32, i32* %119, align 4
  %121 = add nsw i32 %120, 1
  store i32 %121, i32* %119, align 4
  br label %122

122:                                              ; preds = %116, %105
  br label %123

123:                                              ; preds = %122
  %124 = load i32, i32* %6, align 4
  %125 = add nsw i32 %124, 1
  store i32 %125, i32* %6, align 4
  br label %101

126:                                              ; preds = %101
  br label %127

127:                                              ; preds = %126, %96
  br label %128

128:                                              ; preds = %127
  %129 = load i32, i32* %5, align 4
  %130 = add nsw i32 %129, 1
  store i32 %130, i32* %5, align 4
  br label %67

131:                                              ; preds = %67
  store i32 0, i32* %5, align 4
  store i32 0, i32* %11, align 4
  br label %132

132:                                              ; preds = %149, %131
  %133 = load i32, i32* %5, align 4
  %134 = load i32, i32* %10, align 4
  %135 = icmp sle i32 %133, %134
  br i1 %135, label %136, label %152

136:                                              ; preds = %132
  %137 = load i32, i32* %5, align 4
  %138 = sext i32 %137 to i64
  %139 = getelementptr inbounds [503 x i32], [503 x i32]* %4, i64 0, i64 %138
  %140 = load i32, i32* %139, align 4
  %141 = load i32, i32* %11, align 4
  %142 = icmp sgt i32 %140, %141
  br i1 %142, label %143, label %148

143:                                              ; preds = %136
  %144 = load i32, i32* %5, align 4
  %145 = sext i32 %144 to i64
  %146 = getelementptr inbounds [503 x i32], [503 x i32]* %4, i64 0, i64 %145
  %147 = load i32, i32* %146, align 4
  store i32 %147, i32* %11, align 4
  br label %148

148:                                              ; preds = %143, %136
  br label %149

149:                                              ; preds = %148
  %150 = load i32, i32* %5, align 4
  %151 = add nsw i32 %150, 1
  store i32 %151, i32* %5, align 4
  br label %132

152:                                              ; preds = %132
  %153 = load i32, i32* %11, align 4
  %154 = icmp sgt i32 %153, 1
  br i1 %154, label %155, label %180

155:                                              ; preds = %152
  %156 = load i32, i32* %11, align 4
  %157 = call i32 (i8*, ...) @printf(i8* getelementptr inbounds ([4 x i8], [4 x i8]* @.str.2, i64 0, i64 0), i32 %156)
  store i32 0, i32* %5, align 4
  br label %158

158:                                              ; preds = %176, %155
  %159 = load i32, i32* %5, align 4
  %160 = load i32, i32* %10, align 4
  %161 = icmp sle i32 %159, %160
  br i1 %161, label %162, label %179

162:                                              ; preds = %158
  %163 = load i32, i32* %5, align 4
  %164 = sext i32 %163 to i64
  %165 = getelementptr inbounds [503 x i32], [503 x i32]* %4, i64 0, i64 %164
  %166 = load i32, i32* %165, align 4
  %167 = load i32, i32* %11, align 4
  %168 = icmp eq i32 %166, %167
  br i1 %168, label %169, label %175

169:                                              ; preds = %162
  %170 = load i32, i32* %5, align 4
  %171 = sext i32 %170 to i64
  %172 = getelementptr inbounds [501 x [6 x i8]], [501 x [6 x i8]]* %3, i64 0, i64 %171
  %173 = getelementptr inbounds [6 x i8], [6 x i8]* %172, i64 0, i64 0
  %174 = call i32 (i8*, ...) @printf(i8* getelementptr inbounds ([4 x i8], [4 x i8]* @.str.3, i64 0, i64 0), i8* %173)
  br label %175

175:                                              ; preds = %169, %162
  br label %176

176:                                              ; preds = %175
  %177 = load i32, i32* %5, align 4
  %178 = add nsw i32 %177, 1
  store i32 %178, i32* %5, align 4
  br label %158

179:                                              ; preds = %158
  br label %184

180:                                              ; preds = %152
  store i32 1, i32* %11, align 4
  br i1 true, label %181, label %183

181:                                              ; preds = %180
  %182 = call i32 (i8*, ...) @printf(i8* getelementptr inbounds ([3 x i8], [3 x i8]* @.str.4, i64 0, i64 0))
  br label %183

183:                                              ; preds = %181, %180
  br label %184

184:                                              ; preds = %183, %179
  ret i32 0
}

; Function Attrs: argmemonly nounwind willreturn
declare void @llvm.memset.p0i8.i64(i8* nocapture writeonly, i8, i64, i1 immarg) #1

declare dso_local i32 @__isoc99_scanf(i8*, ...) #2

; Function Attrs: nounwind readonly
declare dso_local i64 @strlen(i8*) #3

; Function Attrs: nounwind readonly
declare dso_local i32 @strcmp(i8*, i8*) #3

declare dso_local i32 @printf(i8*, ...) #2


!llvm.module.flags = !{!0}
!llvm.ident = !{!1}

!0 = !{i32 1, !"wchar_size", i32 4}
!1 = !{!"clang version 10.0.0-4ubuntu1 "}
